target datalayout = "e-m:e-p270:32:32-p271:32:32-p272:64:64-i64:64-i128:128-f80:128-n8:16:32:64-S128"
target triple = "x86_64-pc-linux-gnu"

%"class.Luau::Variant" = type { i32, [4 x i8], [40 x i8] }

; Function Attrs: mustprogress uwtable
define linkonce_odr dso_local noundef i64 @_ZN4Luau5visitIRKNS_8TypePath8PathHashEJNS1_8PropertyENS1_5IndexENS1_9TypeFieldENS1_9PackFieldENS1_9ReductionEEEEDaOT_RKNS_7VariantIJDpT0_EEE(ptr noundef nonnull align 1 dereferenceable(1) %0, ptr noundef nonnull align 8 dereferenceable(48) %1) #5 comdat {
  %3 = alloca ptr, align 8
  %4 = alloca ptr, align 8
  %5 = alloca i64, align 8
  store ptr %0, ptr %3, align 8, !tbaa !61
  store ptr %1, ptr %4, align 8, !tbaa !50
  call void @llvm.lifetime.start.p0(i64 8, ptr %5) #3
  %6 = load ptr, ptr %4, align 8, !tbaa !50
  %7 = getelementptr inbounds nuw %"class.Luau::Variant", ptr %6, i32 0, i32 0
  %8 = load i32, ptr %7, align 8, !tbaa !73
  %9 = sext i32 %8 to i64
  %10 = getelementptr inbounds [5 x ptr], ptr @_ZZN4Luau5visitIRKNS_8TypePath8PathHashEJNS1_8PropertyENS1_5IndexENS1_9TypeFieldENS1_9PackFieldENS1_9ReductionEEEEDaOT_RKNS_7VariantIJDpT0_EEEE10tableVisit_0, i64 0, i64 %9
  %11 = load ptr, ptr %10, align 8, !tbaa !65
  %12 = load ptr, ptr %3, align 8, !tbaa !61
  %13 = load ptr, ptr %4, align 8, !tbaa !50
  %14 = getelementptr inbounds nuw %"class.Luau::Variant", ptr %13, i32 0, i32 2
  call void %11(ptr noundef nonnull align 1 dereferenceable(1) %12, ptr noundef nonnull align 8 dereferenceable(8) %5, ptr noundef %14)
  %15 = load i64, ptr %5, align 8, !tbaa !49
  call void @llvm.lifetime.end.p0(i64 8, ptr %5) #3
  ret i64 %15
}

; Function Attrs: mustprogress uwtable
define dso_local noundef i64 @_ZNK4Luau8TypePath8PathHashclERKNS_7VariantIJNS0_8PropertyENS0_5IndexENS0_9TypeFieldENS0_9PackFieldENS0_9ReductionEEEE(ptr noundef nonnull align 1 dereferenceable(1) %0, ptr noundef nonnull align 8 dereferenceable(48) %1) #5 align 2 {
  %3 = alloca ptr, align 8
  %4 = alloca ptr, align 8
  store ptr %0, ptr %3, align 8, !tbaa !61
  store ptr %1, ptr %4, align 8, !tbaa !50
  %5 = load ptr, ptr %3, align 8
  %6 = load ptr, ptr %4, align 8, !tbaa !50
  %7 = call noundef i64 @_ZN4Luau5visitIRKNS_8TypePath8PathHashEJNS1_8PropertyENS1_5IndexENS1_9TypeFieldENS1_9PackFieldENS1_9ReductionEEEEDaOT_RKNS_7VariantIJDpT0_EEE(ptr noundef nonnull align 1 dereferenceable(1) %5, ptr noundef nonnull align 8 dereferenceable(48) %6)
  ret i64 %7
}