; Function Attrs: mustprogress uwtable
define dso_local noundef i64 @_ZNK4Luau8TypePath8PathHashclERKNS_7VariantIJNS0_8PropertyENS0_5IndexENS0_9TypeFieldENS0_9PackFieldENS0_9ReductionEEEE(ptr noundef nonnull align 1 dereferenceable(1) %0, ptr noundef nonnull align 8 dereferenceable(48) %1) local_unnamed_addr #8 align 2 {
  %3 = alloca i64, align 8
  call void @llvm.lifetime.start.p0(i64 8, ptr nonnull %3) #29
  %4 = load i32, ptr %1, align 8, !tbaa !11
  %5 = sext i32 %4 to i64
  %6 = getelementptr inbounds [5 x ptr], ptr @_ZZN4Luau5visitIRKNS_8TypePath8PathHashEJNS1_8PropertyENS1_5IndexENS1_9TypeFieldENS1_9PackFieldENS1_9ReductionEEEEDaOT_RKNS_7VariantIJDpT0_EEEE10tableVisit_0, i64 0, i64 %5
  %7 = load ptr, ptr %6, align 8, !tbaa !14
  %8 = getelementptr inbounds nuw i8, ptr %1, i64 8
  call void %7(ptr noundef nonnull align 1 dereferenceable(1) %0, ptr noundef nonnull align 8 dereferenceable(8) %3, ptr noundef nonnull %8)
  %9 = load i64, ptr %3, align 8, !tbaa !47
  call void @llvm.lifetime.end.p0(i64 8, ptr nonnull %3) #29
  ret i64 %9
}